target datalayout = "e-m:e-p270:32:32-p271:32:32-p272:64:64-i64:64-i128:128-f80:128-n8:16:32:64-S128"
target triple = "x86_64-pc-linux-gnu"

%"class.casadi::MX" = type { %"class.casadi::SharedObject" }
%"class.casadi::SharedObject" = type { %"class.casadi::GenericShared" }
%"class.casadi::GenericShared" = type { ptr }
%"class.casadi::Call" = type { %"class.casadi::MultipleOutput", %"class.casadi::Function", %"class.casadi::WeakCache" }
%"class.casadi::MultipleOutput" = type { %"class.casadi::MXNode" }
%"class.casadi::MXNode" = type { %"class.casadi::SharedObjectInternal", i64, %"class.std::vector.5", %"class.casadi::Sparsity" }
%"class.casadi::SharedObjectInternal" = type { %"class.casadi::GenericSharedInternal", i64 }
%"class.casadi::GenericSharedInternal" = type { ptr, ptr }
%"class.std::vector.5" = type { %"struct.std::_Vector_base.6" }
%"struct.std::_Vector_base.6" = type { %"struct.std::_Vector_base<casadi::MX, std::allocator<casadi::MX>>::_Vector_impl" }
%"struct.std::_Vector_base<casadi::MX, std::allocator<casadi::MX>>::_Vector_impl" = type { %"struct.std::_Vector_base<casadi::MX, std::allocator<casadi::MX>>::_Vector_impl_data" }
%"struct.std::_Vector_base<casadi::MX, std::allocator<casadi::MX>>::_Vector_impl_data" = type { ptr, ptr, ptr }
%"class.casadi::Sparsity" = type { %"class.casadi::SharedObject" }
%"class.casadi::Function" = type { %"class.casadi::SharedObject" }
%"class.casadi::WeakCache" = type { %"class.std::unordered_map" }
%"class.std::unordered_map" = type { %"class.std::_Hashtable" }
%"class.std::_Hashtable" = type { ptr, i64, %"struct.std::__detail::_Hash_node_base", i64, %"struct.std::__detail::_Prime_rehash_policy", ptr }
%"struct.std::__detail::_Hash_node_base" = type { ptr }
%"struct.std::__detail::_Prime_rehash_policy" = type { float, i64 }

; Function Attrs: inlinehint mustprogress uwtable
define linkonce_odr hidden noundef nonnull align 8 dereferenceable(8) ptr @_ZN6casadi12SharedObjectaSERKS0_(ptr noundef nonnull align 8 dereferenceable(8) %0, ptr noundef nonnull align 8 dereferenceable(8) %1) #7 comdat align 2 {
  %3 = alloca ptr, align 8
  %4 = alloca ptr, align 8
  store ptr %0, ptr %3, align 8, !tbaa !229
  store ptr %1, ptr %4, align 8, !tbaa !229
  %5 = load ptr, ptr %3, align 8
  %6 = load ptr, ptr %4, align 8, !tbaa !229
  %7 = call noundef nonnull align 8 dereferenceable(8) ptr @_ZN6casadi13GenericSharedINS_12SharedObjectENS_20SharedObjectInternalEEaSERKS3_(ptr noundef nonnull align 8 dereferenceable(8) %5, ptr noundef nonnull align 8 dereferenceable(8) %6)
  ret ptr %5
}

; Function Attrs: mustprogress uwtable
define linkonce_odr hidden void @_ZN6casadi9WeakCacheIxNS_2MXEE18tocache_if_missingERKxRS1_(ptr noundef nonnull align 8 dereferenceable(56) %0, ptr noundef nonnull align 8 dereferenceable(8) %1, ptr noundef nonnull align 8 dereferenceable(8) %2) #4 comdat align 2 {
  %4 = alloca ptr, align 8
  %5 = alloca ptr, align 8
  %6 = alloca ptr, align 8
  store ptr %0, ptr %4, align 8, !tbaa !48
  store ptr %1, ptr %5, align 8, !tbaa !33
  store ptr %2, ptr %6, align 8, !tbaa !3
  %7 = load ptr, ptr %4, align 8
  %8 = load ptr, ptr %5, align 8, !tbaa !33
  %9 = load ptr, ptr %6, align 8, !tbaa !3
  %10 = call noundef zeroext i1 @_ZNK6casadi9WeakCacheIxNS_2MXEE7incacheERKxRS1_b(ptr noundef nonnull align 8 dereferenceable(56) %7, ptr noundef nonnull align 8 dereferenceable(8) %8, ptr noundef nonnull align 8 dereferenceable(8) %9, i1 noundef zeroext false)
  br i1 %10, label %14, label %11

11:                                               ; preds = %3
  %12 = load ptr, ptr %5, align 8, !tbaa !33
  %13 = load ptr, ptr %6, align 8, !tbaa !3
  call void @_ZN6casadi9WeakCacheIxNS_2MXEE7tocacheERKxRKS1_b(ptr noundef nonnull align 8 dereferenceable(56) %7, ptr noundef nonnull align 8 dereferenceable(8) %12, ptr noundef nonnull align 8 dereferenceable(8) %13, i1 noundef zeroext false)
  br label %14

14:                                               ; preds = %11, %3
  ret void
}

; Function Attrs: inlinehint mustprogress uwtable
define linkonce_odr hidden noundef nonnull align 8 dereferenceable(8) ptr @_ZN6casadi2MXaSERKS0_(ptr noundef nonnull align 8 dereferenceable(8) %0, ptr noundef nonnull align 8 dereferenceable(8) %1) #7 comdat align 2 {
  %3 = alloca ptr, align 8
  %4 = alloca ptr, align 8
  store ptr %0, ptr %3, align 8, !tbaa !3
  store ptr %1, ptr %4, align 8, !tbaa !3
  %5 = load ptr, ptr %3, align 8
  %6 = load ptr, ptr %4, align 8, !tbaa !3
  %7 = call noundef nonnull align 8 dereferenceable(8) ptr @_ZN6casadi12SharedObjectaSERKS0_(ptr noundef nonnull align 8 dereferenceable(8) %5, ptr noundef nonnull align 8 dereferenceable(8) %6)
  ret ptr %5
}

; Function Attrs: mustprogress uwtable
define void @_ZNK6casadi4Call10get_outputEx(ptr dead_on_unwind noalias writable sret(%"class.casadi::MX") align 8 %0, ptr noundef nonnull align 8 dereferenceable(128) %1, i64 noundef %2) unnamed_addr #4 align 2 personality ptr @__gxx_personality_v0 {
  %4 = alloca ptr, align 8
  %5 = alloca ptr, align 8
  %6 = alloca i64, align 8
  %7 = alloca %"class.casadi::MX", align 8
  %8 = alloca ptr, align 8
  %9 = alloca i32, align 4
  %10 = alloca i32, align 4
  %11 = alloca i1, align 1
  %12 = alloca %"class.casadi::MX", align 8
  store ptr %0, ptr %4, align 8
  store ptr %1, ptr %5, align 8, !tbaa !44
  store i64 %2, ptr %6, align 8, !tbaa !10
  %13 = load ptr, ptr %5, align 8
  call void @llvm.lifetime.start.p0(i64 8, ptr %7) #3
  call void @_ZNK6casadi21GenericSharedInternalINS_12SharedObjectENS_20SharedObjectInternalEE16shared_from_thisINS_2MXEEEKT_v(ptr dead_on_unwind writable sret(%"class.casadi::MX") align 8 %7, ptr noundef nonnull align 8 dereferenceable(16) %13)
  %14 = invoke noundef ptr @_ZN6casadi2MXptEv(ptr noundef nonnull align 8 dereferenceable(8) %7)
          to label %15 unwind label %35

15:                                               ; preds = %3
  %16 = load i64, ptr %6, align 8, !tbaa !10
  %17 = load ptr, ptr %14, align 8, !tbaa !37
  %18 = getelementptr inbounds ptr, ptr %17, i64 49
  %19 = load ptr, ptr %18, align 8
  %20 = invoke noundef nonnull align 8 dereferenceable(8) ptr %19(ptr noundef nonnull align 8 dereferenceable(64) %14, i64 noundef %16)
          to label %21 unwind label %35

21:                                               ; preds = %15
  %22 = invoke noundef i64 @_ZNK6casadi8Sparsity3nnzEv(ptr noundef nonnull align 8 dereferenceable(8) %20)
          to label %23 unwind label %35

23:                                               ; preds = %21
  %24 = icmp eq i64 %22, 0
  br i1 %24, label %25, label %39

25:                                               ; preds = %23
  %26 = invoke noundef ptr @_ZN6casadi2MXptEv(ptr noundef nonnull align 8 dereferenceable(8) %7)
          to label %27 unwind label %35

27:                                               ; preds = %25
  %28 = load i64, ptr %6, align 8, !tbaa !10
  %29 = load ptr, ptr %26, align 8, !tbaa !37
  %30 = getelementptr inbounds ptr, ptr %29, i64 49
  %31 = load ptr, ptr %30, align 8
  %32 = invoke noundef nonnull align 8 dereferenceable(8) ptr %31(ptr noundef nonnull align 8 dereferenceable(64) %26, i64 noundef %28)
          to label %33 unwind label %35

33:                                               ; preds = %27
  invoke void @_ZN6casadi2MXC1ERKNS_8SparsityE(ptr noundef nonnull align 8 dereferenceable(8) %0, ptr noundef nonnull align 8 dereferenceable(8) %32)
          to label %34 unwind label %35

34:                                               ; preds = %33
  store i32 1, ptr %10, align 4
  br label %76

35:                                               ; preds = %39, %33, %27, %25, %21, %15, %3
  %36 = landingpad { ptr, i32 }
          cleanup
  %37 = extractvalue { ptr, i32 } %36, 0
  store ptr %37, ptr %8, align 8
  %38 = extractvalue { ptr, i32 } %36, 1
  store i32 %38, ptr %9, align 4
  br label %77

39:                                               ; preds = %23
  store i1 false, ptr %11, align 1
  invoke void @_ZN6casadi2MXC1Ev(ptr noundef nonnull align 8 dereferenceable(8) %0)
          to label %40 unwind label %35

40:                                               ; preds = %39
  %41 = getelementptr inbounds nuw %"class.casadi::Call", ptr %13, i32 0, i32 2
  %42 = invoke noundef zeroext i1 @_ZNK6casadi9WeakCacheIxNS_2MXEE7incacheERKxRS1_b(ptr noundef nonnull align 8 dereferenceable(56) %41, ptr noundef nonnull align 8 dereferenceable(8) %6, ptr noundef nonnull align 8 dereferenceable(8) %0, i1 noundef zeroext true)
          to label %43 unwind label %54

43:                                               ; preds = %40
  br i1 %42, label %71, label %44

44:                                               ; preds = %43
  call void @llvm.lifetime.start.p0(i64 8, ptr %12) #3
  %45 = invoke noalias noundef nonnull ptr @_Znwm(i64 noundef 72) #21
          to label %46 unwind label %58

46:                                               ; preds = %44
  %47 = load i64, ptr %6, align 8, !tbaa !10
  invoke void @_ZN6casadi10OutputNodeC1ERKNS_2MXEx(ptr noundef nonnull align 8 dereferenceable(72) %45, ptr noundef nonnull align 8 dereferenceable(8) %7, i64 noundef %47)
          to label %48 unwind label %62

48:                                               ; preds = %46
  invoke void @_ZN6casadi2MX6createEPNS_6MXNodeE(ptr dead_on_unwind writable sret(%"class.casadi::MX") align 8 %12, ptr noundef %45)
          to label %49 unwind label %58

49:                                               ; preds = %48
  %50 = invoke noundef nonnull align 8 dereferenceable(8) ptr @_ZN6casadi2MXaSERKS0_(ptr noundef nonnull align 8 dereferenceable(8) %0, ptr noundef nonnull align 8 dereferenceable(8) %12)
          to label %51 unwind label %66

51:                                               ; preds = %49
  call void @_ZN6casadi2MXD1Ev(ptr noundef nonnull align 8 dereferenceable(8) %12) #3
  call void @llvm.lifetime.end.p0(i64 8, ptr %12) #3
  %52 = getelementptr inbounds nuw %"class.casadi::Call", ptr %13, i32 0, i32 2
  invoke void @_ZN6casadi9WeakCacheIxNS_2MXEE18tocache_if_missingERKxRS1_(ptr noundef nonnull align 8 dereferenceable(56) %52, ptr noundef nonnull align 8 dereferenceable(8) %6, ptr noundef nonnull align 8 dereferenceable(8) %0)
          to label %53 unwind label %54

53:                                               ; preds = %51
  br label %71

54:                                               ; preds = %51, %40
  %55 = landingpad { ptr, i32 }
          cleanup
  %56 = extractvalue { ptr, i32 } %55, 0
  store ptr %56, ptr %8, align 8
  %57 = extractvalue { ptr, i32 } %55, 1
  store i32 %57, ptr %9, align 4
  br label %75

58:                                               ; preds = %48, %44
  %59 = landingpad { ptr, i32 }
          cleanup
  %60 = extractvalue { ptr, i32 } %59, 0
  store ptr %60, ptr %8, align 8
  %61 = extractvalue { ptr, i32 } %59, 1
  store i32 %61, ptr %9, align 4
  br label %70

62:                                               ; preds = %46
  %63 = landingpad { ptr, i32 }
          cleanup
  %64 = extractvalue { ptr, i32 } %63, 0
  store ptr %64, ptr %8, align 8
  %65 = extractvalue { ptr, i32 } %63, 1
  store i32 %65, ptr %9, align 4
  call void @_ZdlPvm(ptr noundef %45, i64 noundef 72) #22
  br label %70

66:                                               ; preds = %49
  %67 = landingpad { ptr, i32 }
          cleanup
  %68 = extractvalue { ptr, i32 } %67, 0
  store ptr %68, ptr %8, align 8
  %69 = extractvalue { ptr, i32 } %67, 1
  store i32 %69, ptr %9, align 4
  call void @_ZN6casadi2MXD1Ev(ptr noundef nonnull align 8 dereferenceable(8) %12) #3
  br label %70

70:                                               ; preds = %66, %62, %58
  call void @llvm.lifetime.end.p0(i64 8, ptr %12) #3
  br label %75

71:                                               ; preds = %53, %43
  store i1 true, ptr %11, align 1
  store i32 1, ptr %10, align 4
  %72 = load i1, ptr %11, align 1
  br i1 %72, label %74, label %73

73:                                               ; preds = %71
  call void @_ZN6casadi2MXD1Ev(ptr noundef nonnull align 8 dereferenceable(8) %0) #3
  br label %74

74:                                               ; preds = %73, %71
  br label %76

75:                                               ; preds = %70, %54
  call void @_ZN6casadi2MXD1Ev(ptr noundef nonnull align 8 dereferenceable(8) %0) #3
  br label %77

76:                                               ; preds = %74, %34
  call void @_ZN6casadi2MXD1Ev(ptr noundef nonnull align 8 dereferenceable(8) %7) #3
  call void @llvm.lifetime.end.p0(i64 8, ptr %7) #3
  ret void

77:                                               ; preds = %75, %35
  call void @_ZN6casadi2MXD1Ev(ptr noundef nonnull align 8 dereferenceable(8) %7) #3
  call void @llvm.lifetime.end.p0(i64 8, ptr %7) #3
  br label %78

78:                                               ; preds = %77
  %79 = load ptr, ptr %8, align 8
  %80 = load i32, ptr %9, align 4
  %81 = insertvalue { ptr, i32 } poison, ptr %79, 0
  %82 = insertvalue { ptr, i32 } %81, i32 %80, 1
  resume { ptr, i32 } %82
}