; Function Attrs: mustprogress uwtable
define void @_ZNK6casadi4Call10get_outputEx(ptr dead_on_unwind noalias writable sret(%"class.casadi::MX") align 8 %0, ptr noundef nonnull align 8 dereferenceable(128) %1, i64 noundef %2) unnamed_addr #3 align 2 personality ptr @__gxx_personality_v0 {
  %4 = alloca i64, align 8
  %5 = alloca %"class.casadi::MX", align 8
  %6 = alloca %"class.casadi::MX", align 8
  store i64 %2, ptr %4, align 8, !tbaa !3
  call void @llvm.lifetime.start.p0(i64 8, ptr nonnull %5) #24
  call void @_ZNK6casadi21GenericSharedInternalINS_12SharedObjectENS_20SharedObjectInternalEE16shared_from_thisINS_2MXEEEKT_v(ptr dead_on_unwind nonnull writable sret(%"class.casadi::MX") align 8 %5, ptr noundef nonnull align 8 dereferenceable(16) %1)
  %7 = invoke noundef ptr @_ZN6casadi2MXptEv(ptr noundef nonnull align 8 dereferenceable(8) %5)
          to label %8 unwind label %25

8:                                                ; preds = %3
  %9 = load ptr, ptr %7, align 8, !tbaa !34
  %10 = getelementptr inbounds nuw i8, ptr %9, i64 392
  %11 = load ptr, ptr %10, align 8
  %12 = invoke noundef nonnull align 8 dereferenceable(8) ptr %11(ptr noundef nonnull align 8 dereferenceable(64) %7, i64 noundef %2)
          to label %13 unwind label %25

13:                                               ; preds = %8
  %14 = invoke noundef i64 @_ZNK6casadi8Sparsity3nnzEv(ptr noundef nonnull align 8 dereferenceable(8) %12)
          to label %15 unwind label %25

15:                                               ; preds = %13
  %16 = icmp eq i64 %14, 0
  br i1 %16, label %17, label %27

17:                                               ; preds = %15
  %18 = invoke noundef ptr @_ZN6casadi2MXptEv(ptr noundef nonnull align 8 dereferenceable(8) %5)
          to label %19 unwind label %25

19:                                               ; preds = %17
  %20 = load ptr, ptr %18, align 8, !tbaa !34
  %21 = getelementptr inbounds nuw i8, ptr %20, i64 392
  %22 = load ptr, ptr %21, align 8
  %23 = invoke noundef nonnull align 8 dereferenceable(8) ptr %22(ptr noundef nonnull align 8 dereferenceable(64) %18, i64 noundef %2)
          to label %24 unwind label %25

24:                                               ; preds = %19
  invoke void @_ZN6casadi2MXC1ERKNS_8SparsityE(ptr noundef nonnull align 8 dereferenceable(8) %0, ptr noundef nonnull align 8 dereferenceable(8) %23)
          to label %_ZN6casadi9WeakCacheIxNS_2MXEE18tocache_if_missingERKxRS1_.exit unwind label %25

25:                                               ; preds = %27, %24, %19, %17, %13, %8, %3
  %26 = landingpad { ptr, i32 }
          cleanup
  br label %51

27:                                               ; preds = %15
  invoke void @_ZN6casadi2MXC1Ev(ptr noundef nonnull align 8 dereferenceable(8) %0)
          to label %28 unwind label %25

28:                                               ; preds = %27
  %29 = getelementptr inbounds nuw i8, ptr %1, i64 72
  %30 = invoke noundef zeroext i1 @_ZNK6casadi9WeakCacheIxNS_2MXEE7incacheERKxRS1_b(ptr noundef nonnull align 8 dereferenceable(56) %29, ptr noundef nonnull align 8 dereferenceable(8) %4, ptr noundef nonnull align 8 dereferenceable(8) %0, i1 noundef zeroext true)
          to label %31 unwind label %41

31:                                               ; preds = %28
  br i1 %30, label %_ZN6casadi9WeakCacheIxNS_2MXEE18tocache_if_missingERKxRS1_.exit, label %32

32:                                               ; preds = %31
  call void @llvm.lifetime.start.p0(i64 8, ptr nonnull %6) #24
  %33 = invoke noalias noundef nonnull dereferenceable(72) ptr @_Znwm(i64 noundef 72) #27
          to label %34 unwind label %43

34:                                               ; preds = %32
  %35 = load i64, ptr %4, align 8, !tbaa !3
  invoke void @_ZN6casadi10OutputNodeC1ERKNS_2MXEx(ptr noundef nonnull align 8 dereferenceable(72) %33, ptr noundef nonnull align 8 dereferenceable(8) %5, i64 noundef %35)
          to label %36 unwind label %45

36:                                               ; preds = %34
  invoke void @_ZN6casadi2MX6createEPNS_6MXNodeE(ptr dead_on_unwind nonnull writable sret(%"class.casadi::MX") align 8 %6, ptr noundef nonnull %33)
          to label %37 unwind label %43

37:                                               ; preds = %36
  %38 = invoke noundef nonnull align 8 dereferenceable(8) ptr @_ZN6casadi13GenericSharedINS_12SharedObjectENS_20SharedObjectInternalEEaSERKS3_(ptr noundef nonnull align 8 dereferenceable(8) %0, ptr noundef nonnull align 8 dereferenceable(8) %6)
          to label %_ZN6casadi2MXaSERKS0_.exit unwind label %47

_ZN6casadi2MXaSERKS0_.exit:                       ; preds = %37
  call void @_ZN6casadi2MXD1Ev(ptr noundef nonnull align 8 dereferenceable(8) %6) #24
  call void @llvm.lifetime.end.p0(i64 8, ptr nonnull %6) #24
  %39 = invoke noundef zeroext i1 @_ZNK6casadi9WeakCacheIxNS_2MXEE7incacheERKxRS1_b(ptr noundef nonnull align 8 dereferenceable(56) %29, ptr noundef nonnull align 8 dereferenceable(8) %4, ptr noundef nonnull align 8 dereferenceable(8) %0, i1 noundef zeroext false)
          to label %.noexc unwind label %41

.noexc:                                           ; preds = %_ZN6casadi2MXaSERKS0_.exit
  br i1 %39, label %_ZN6casadi9WeakCacheIxNS_2MXEE18tocache_if_missingERKxRS1_.exit, label %40

40:                                               ; preds = %.noexc
  invoke void @_ZN6casadi9WeakCacheIxNS_2MXEE7tocacheERKxRKS1_b(ptr noundef nonnull align 8 dereferenceable(56) %29, ptr noundef nonnull align 8 dereferenceable(8) %4, ptr noundef nonnull align 8 dereferenceable(8) %0, i1 noundef zeroext false)
          to label %_ZN6casadi9WeakCacheIxNS_2MXEE18tocache_if_missingERKxRS1_.exit unwind label %41

41:                                               ; preds = %40, %_ZN6casadi2MXaSERKS0_.exit, %28
  %42 = landingpad { ptr, i32 }
          cleanup
  br label %50

43:                                               ; preds = %36, %32
  %44 = landingpad { ptr, i32 }
          cleanup
  br label %49

45:                                               ; preds = %34
  %46 = landingpad { ptr, i32 }
          cleanup
  call void @_ZdlPvm(ptr noundef nonnull %33, i64 noundef 72) #26
  br label %49

47:                                               ; preds = %37
  %48 = landingpad { ptr, i32 }
          cleanup
  call void @_ZN6casadi2MXD1Ev(ptr noundef nonnull align 8 dereferenceable(8) %6) #24
  br label %49

49:                                               ; preds = %47, %45, %43
  %.pn = phi { ptr, i32 } [ %48, %47 ], [ %44, %43 ], [ %46, %45 ]
  call void @llvm.lifetime.end.p0(i64 8, ptr nonnull %6) #24
  br label %50

50:                                               ; preds = %49, %41
  %.pn7 = phi { ptr, i32 } [ %42, %41 ], [ %.pn, %49 ]
  call void @_ZN6casadi2MXD1Ev(ptr noundef nonnull align 8 dereferenceable(8) %0) #24
  br label %51

_ZN6casadi9WeakCacheIxNS_2MXEE18tocache_if_missingERKxRS1_.exit: ; preds = %.noexc, %40, %31, %24
  call void @_ZN6casadi2MXD1Ev(ptr noundef nonnull align 8 dereferenceable(8) %5) #24
  call void @llvm.lifetime.end.p0(i64 8, ptr nonnull %5) #24
  ret void

51:                                               ; preds = %50, %25
  %.pn9 = phi { ptr, i32 } [ %26, %25 ], [ %.pn7, %50 ]
  call void @_ZN6casadi2MXD1Ev(ptr noundef nonnull align 8 dereferenceable(8) %5) #24
  call void @llvm.lifetime.end.p0(i64 8, ptr nonnull %5) #24
  resume { ptr, i32 } %.pn9
}